; Function Attrs: nounwind uwtable
define ptr @l_Lake_Toml_tomlCore(ptr noundef %0) local_unnamed_addr #1 {
  %2 = load ptr, ptr @l_Lake_Toml_trailingWs, align 8, !tbaa !10
  %3 = tail call ptr @l_Lean_Parser_andthen(ptr noundef %2, ptr noundef %0) #4
  %4 = load ptr, ptr @l_Lake_Toml_keyvalCore___closed__7, align 8, !tbaa !10
  %5 = tail call ptr @l_Lean_Parser_andthen(ptr noundef %4, ptr noundef %3) #4
  %6 = tail call ptr @l_Lean_Parser_andthen(ptr noundef %2, ptr noundef %5) #4
  %7 = load ptr, ptr @l_Lake_Toml_key, align 8, !tbaa !10
  %8 = tail call ptr @l_Lean_Parser_andthen(ptr noundef %7, ptr noundef %6) #4
  %9 = load ptr, ptr @l_Lake_Toml_keyvalCore___closed__1, align 8, !tbaa !10
  %10 = load ptr, ptr @l_Lake_Toml_keyvalCore___closed__2, align 8, !tbaa !10
  %11 = tail call ptr @l_Lean_Parser_nodeWithAntiquot(ptr noundef %9, ptr noundef %10, ptr noundef %8, i8 noundef zeroext 1) #4
  %12 = load ptr, ptr @l_Lake_Toml_table, align 8, !tbaa !10
  %13 = tail call ptr @l_Lean_Parser_orelse(ptr noundef %11, ptr noundef %12) #4
  %14 = load ptr, ptr @l_Lake_Toml_expressionCore___closed__3, align 8, !tbaa !10
  %15 = tail call ptr @l_Lean_Parser_withAntiquot(ptr noundef %14, ptr noundef %13) #4
  %16 = load ptr, ptr @l_Lake_Toml_trailingSep, align 8, !tbaa !10
  %17 = tail call ptr @l_Lean_Parser_andthen(ptr noundef %15, ptr noundef %16) #4
  %18 = load ptr, ptr @l_Lake_Toml_tomlCore___closed__4, align 8, !tbaa !10
  %19 = load ptr, ptr @l_Lake_Toml_tomlCore___closed__6, align 8, !tbaa !10
  %20 = tail call ptr @l_Lean_Parser_withAntiquotSpliceAndSuffix(ptr noundef %18, ptr noundef %17, ptr noundef %19) #4
  %21 = load ptr, ptr @l_Lake_Toml_tomlCore___closed__9, align 8, !tbaa !10
  %22 = tail call ptr @l_Lean_Parser_sepByNoAntiquot(ptr noundef %20, ptr noundef %21, i8 noundef zeroext 1) #4
  %23 = load ptr, ptr @l_Lake_Toml_header, align 8, !tbaa !10
  %24 = tail call ptr @l_Lean_Parser_andthen(ptr noundef %23, ptr noundef %22) #4
  %25 = load ptr, ptr @l_Lake_Toml_tomlCore___closed__1, align 8, !tbaa !10
  %26 = load ptr, ptr @l_Lake_Toml_tomlCore___closed__2, align 8, !tbaa !10
  %27 = tail call ptr @l_Lean_Parser_nodeWithAntiquot(ptr noundef %25, ptr noundef %26, ptr noundef %24, i8 noundef zeroext 1) #4
  ret ptr %27
}